; ModuleID = '38/781.c'
source_filename = "38/781.c"
target datalayout = "e-m:e-p270:32:32-p271:32:32-p272:64:64-i64:64-f80:128-n8:16:32:64-S128"
target triple = "x86_64-pc-linux-gnu"

@.str = private unnamed_addr constant [3 x i8] c"%d\00", align 1
@.str.1 = private unnamed_addr constant [4 x i8] c"%lf\00", align 1
@.str.2 = private unnamed_addr constant [7 x i8] c"%.5lf\0A\00", align 1

; Function Attrs: noinline nounwind uwtable
define dso_local i32 @main() #0 {
  %1 = alloca i32, align 4
  %2 = alloca i32, align 4
  %3 = alloca i32, align 4
  %4 = alloca i32, align 4
  %5 = alloca i32, align 4
  %6 = alloca i32, align 4
  %7 = alloca i32, align 4
  %8 = alloca i32, align 4
  %9 = alloca i32, align 4
  %10 = alloca [100 x double], align 16
  %11 = alloca double, align 8
  %12 = alloca double, align 8
  %13 = alloca double, align 8
  store i32 0, i32* %1, align 4
  store double 0.000000e+00, double* %11, align 8
  store double 0.000000e+00, double* %12, align 8
  %14 = call i32 (i8*, ...) @__isoc99_scanf(i8* getelementptr inbounds ([3 x i8], [3 x i8]* @.str, i64 0, i64 0), i32* %2)
  store i32 0, i32* %3, align 4
  br label %15

15:                                               ; preds = %80, %0
  %16 = load i32, i32* %3, align 4
  %17 = load i32, i32* %2, align 4
  %18 = icmp slt i32 %16, %17
  br i1 %18, label %19, label %83

19:                                               ; preds = %15
  %20 = call i32 (i8*, ...) @__isoc99_scanf(i8* getelementptr inbounds ([3 x i8], [3 x i8]* @.str, i64 0, i64 0), i32* %9)
  store i32 0, i32* %4, align 4
  br label %21

21:                                               ; preds = %36, %19
  %22 = load i32, i32* %4, align 4
  %23 = load i32, i32* %9, align 4
  %24 = icmp slt i32 %22, %23
  br i1 %24, label %25, label %39

25:                                               ; preds = %21
  %26 = load i32, i32* %4, align 4
  %27 = sext i32 %26 to i64
  %28 = getelementptr inbounds [100 x double], [100 x double]* %10, i64 0, i64 %27
  %29 = call i32 (i8*, ...) @__isoc99_scanf(i8* getelementptr inbounds ([4 x i8], [4 x i8]* @.str.1, i64 0, i64 0), double* %28)
  %30 = load i32, i32* %4, align 4
  %31 = sext i32 %30 to i64
  %32 = getelementptr inbounds [100 x double], [100 x double]* %10, i64 0, i64 %31
  %33 = load double, double* %32, align 8
  %34 = load double, double* %11, align 8
  %35 = fadd double %34, %33
  store double %35, double* %11, align 8
  br label %36

36:                                               ; preds = %25
  %37 = load i32, i32* %4, align 4
  %38 = add nsw i32 %37, 1
  store i32 %38, i32* %4, align 4
  br label %21

39:                                               ; preds = %21
  %40 = load i32, i32* %9, align 4
  store i32 %40, i32* %8, align 4
  %41 = load i32, i32* %9, align 4
  %42 = sitofp i32 %41 to double
  %43 = fmul double %42, 1.000000e+00
  %44 = fptosi double %43 to i32
  store i32 %44, i32* %9, align 4
  %45 = load double, double* %11, align 8
  %46 = load i32, i32* %9, align 4
  %47 = sitofp i32 %46 to double
  %48 = fdiv double %45, %47
  store double %48, double* %13, align 8
  store i32 0, i32* %5, align 4
  br label %49

49:                                               ; preds = %69, %39
  %50 = load i32, i32* %5, align 4
  %51 = load i32, i32* %8, align 4
  %52 = icmp slt i32 %50, %51
  br i1 %52, label %53, label %72

53:                                               ; preds = %49
  %54 = load i32, i32* %5, align 4
  %55 = sext i32 %54 to i64
  %56 = getelementptr inbounds [100 x double], [100 x double]* %10, i64 0, i64 %55
  %57 = load double, double* %56, align 8
  %58 = load double, double* %13, align 8
  %59 = fsub double %57, %58
  %60 = load i32, i32* %5, align 4
  %61 = sext i32 %60 to i64
  %62 = getelementptr inbounds [100 x double], [100 x double]* %10, i64 0, i64 %61
  %63 = load double, double* %62, align 8
  %64 = load double, double* %13, align 8
  %65 = fsub double %63, %64
  %66 = fmul double %59, %65
  %67 = load double, double* %12, align 8
  %68 = fadd double %67, %66
  store double %68, double* %12, align 8
  br label %69

69:                                               ; preds = %53
  %70 = load i32, i32* %5, align 4
  %71 = add nsw i32 %70, 1
  store i32 %71, i32* %5, align 4
  br label %49

72:                                               ; preds = %49
  %73 = load double, double* %12, align 8
  %74 = load i32, i32* %9, align 4
  %75 = sitofp i32 %74 to double
  %76 = fdiv double %73, %75
  %77 = call double @sqrt(double %76) #3
  store double %77, double* %12, align 8
  %78 = load double, double* %12, align 8
  %79 = call i32 (i8*, ...) @printf(i8* getelementptr inbounds ([7 x i8], [7 x i8]* @.str.2, i64 0, i64 0), double %78)
  store double 0.000000e+00, double* %11, align 8
  store double 0.000000e+00, double* %12, align 8
  br label %80

80:                                               ; preds = %72
  %81 = load i32, i32* %3, align 4
  %82 = add nsw i32 %81, 1
  store i32 %82, i32* %3, align 4
  br label %15

83:                                               ; preds = %15
  ret i32 0
}

declare dso_local i32 @__isoc99_scanf(i8*, ...) #1

; Function Attrs: nounwind
declare dso_local double @sqrt(double) #2

declare dso_local i32 @printf(i8*, ...) #1


!llvm.module.flags = !{!0}
!llvm.ident = !{!1}

!0 = !{i32 1, !"wchar_size", i32 4}
!1 = !{!"clang version 10.0.0-4ubuntu1 "}
